target datalayout = "e-m:e-p270:32:32-p271:32:32-p272:64:64-i64:64-i128:128-f80:128-n8:16:32:64-S128"
target triple = "x86_64-pc-linux-gnu"

%struct.HTAB = type { ptr, ptr, ptr, ptr, ptr, ptr, ptr, ptr, i8, i8, i8, i64, i64, i32 }

@.str.2 = private unnamed_addr constant [11 x i8] c"dynahash.c\00", align 1
@.str.13 = private unnamed_addr constant [26 x i8] c"hash table \22%s\22 corrupted\00", align 1
@__func__.hash_corrupted = private unnamed_addr constant [15 x i8] c"hash_corrupted\00", align 1

; Function Attrs: noreturn nounwind uwtable
define internal void @hash_corrupted(ptr noundef %0) #9 {
  %2 = alloca ptr, align 8
  store ptr %0, ptr %2, align 8
  %3 = load ptr, ptr %2, align 8
  %4 = getelementptr inbounds nuw %struct.HTAB, ptr %3, i32 0, i32 8
  %5 = load i8, ptr %4, align 8, !range !12, !noundef !13
  %6 = trunc i8 %5 to i1
  br i1 %6, label %7, label %20

7:                                                ; preds = %1
  br label %8

8:                                                ; preds = %7
  br i1 true, label %9, label %11

9:                                                ; preds = %8
  %10 = call zeroext i1 @errstart_cold(i32 noundef 23, ptr noundef null) #13
  br i1 %10, label %13, label %18

11:                                               ; preds = %8
  %12 = call zeroext i1 @errstart(i32 noundef 23, ptr noundef null)
  br i1 %12, label %13, label %18

13:                                               ; preds = %11, %9
  %14 = load ptr, ptr %2, align 8
  %15 = getelementptr inbounds nuw %struct.HTAB, ptr %14, i32 0, i32 7
  %16 = load ptr, ptr %15, align 8
  %17 = call i32 (ptr, ...) @errmsg_internal(ptr noundef @.str.13, ptr noundef %16)
  call void @errfinish(ptr noundef @.str.2, i32 noundef 1787, ptr noundef @__func__.hash_corrupted)
  br label %18

18:                                               ; preds = %13, %11, %9
  unreachable

19:                                               ; No predecessors!
  br label %33

20:                                               ; preds = %1
  br label %21

21:                                               ; preds = %20
  br i1 true, label %22, label %24

22:                                               ; preds = %21
  %23 = call zeroext i1 @errstart_cold(i32 noundef 22, ptr noundef null) #13
  br i1 %23, label %26, label %31

24:                                               ; preds = %21
  %25 = call zeroext i1 @errstart(i32 noundef 22, ptr noundef null)
  br i1 %25, label %26, label %31

26:                                               ; preds = %24, %22
  %27 = load ptr, ptr %2, align 8
  %28 = getelementptr inbounds nuw %struct.HTAB, ptr %27, i32 0, i32 7
  %29 = load ptr, ptr %28, align 8
  %30 = call i32 (ptr, ...) @errmsg_internal(ptr noundef @.str.13, ptr noundef %29)
  call void @errfinish(ptr noundef @.str.2, i32 noundef 1789, ptr noundef @__func__.hash_corrupted)
  br label %31

31:                                               ; preds = %26, %24, %22
  unreachable

32:                                               ; No predecessors!
  br label %33

33:                                               ; preds = %32, %19
  unreachable
}