; Function Attrs: cold noreturn nounwind uwtable
define internal fastcc void @hash_corrupted(ptr noundef readonly captures(none) %0) unnamed_addr #13 {
  %2 = getelementptr inbounds nuw i8, ptr %0, i64 64
  %3 = load i8, ptr %2, align 8, !range !10, !noundef !11
  %4 = trunc nuw i8 %3 to i1
  %5 = getelementptr inbounds nuw i8, ptr %0, i64 56
  br i1 %4, label %6, label %10

6:                                                ; preds = %1
  %7 = tail call zeroext i1 @errstart_cold(i32 noundef 23, ptr noundef null) #19
  tail call void @llvm.assume(i1 %7)
  %8 = load ptr, ptr %5, align 8
  %9 = tail call i32 (ptr, ...) @errmsg_internal(ptr noundef nonnull @.str.13, ptr noundef %8) #17
  tail call void @errfinish(ptr noundef nonnull @.str.2, i32 noundef 1787, ptr noundef nonnull @__func__.hash_corrupted) #17
  unreachable

10:                                               ; preds = %1
  %11 = tail call zeroext i1 @errstart_cold(i32 noundef 22, ptr noundef null) #19
  tail call void @llvm.assume(i1 %11)
  %12 = load ptr, ptr %5, align 8
  %13 = tail call i32 (ptr, ...) @errmsg_internal(ptr noundef nonnull @.str.13, ptr noundef %12) #17
  tail call void @errfinish(ptr noundef nonnull @.str.2, i32 noundef 1789, ptr noundef nonnull @__func__.hash_corrupted) #17
  unreachable
}